target datalayout = "e-m:e-p270:32:32-p271:32:32-p272:64:64-i64:64-i128:128-f80:128-n8:16:32:64-S128"
target triple = "x86_64-pc-linux-gnu"

%struct.StringInfoData = type { ptr, i32, i32, i32 }

; Function Attrs: nounwind uwtable
define dso_local i32 @appendStringInfoVA(ptr noundef %0, ptr noundef %1, ptr noundef %2) #0 {
  %4 = alloca i32, align 4
  %5 = alloca ptr, align 8
  %6 = alloca ptr, align 8
  %7 = alloca ptr, align 8
  %8 = alloca i32, align 4
  %9 = alloca i64, align 8
  %10 = alloca i32, align 4
  store ptr %0, ptr %5, align 8
  store ptr %1, ptr %6, align 8
  store ptr %2, ptr %7, align 8
  call void @llvm.lifetime.start.p0(i64 4, ptr %8) #10
  call void @llvm.lifetime.start.p0(i64 8, ptr %9) #10
  %11 = load ptr, ptr %5, align 8
  %12 = getelementptr inbounds nuw %struct.StringInfoData, ptr %11, i32 0, i32 2
  %13 = load i32, ptr %12, align 4
  %14 = load ptr, ptr %5, align 8
  %15 = getelementptr inbounds nuw %struct.StringInfoData, ptr %14, i32 0, i32 1
  %16 = load i32, ptr %15, align 8
  %17 = sub i32 %13, %16
  store i32 %17, ptr %8, align 4
  %18 = load i32, ptr %8, align 4
  %19 = icmp slt i32 %18, 16
  br i1 %19, label %20, label %21

20:                                               ; preds = %3
  store i32 32, ptr %4, align 4
  store i32 1, ptr %10, align 4
  br label %57

21:                                               ; preds = %3
  %22 = load ptr, ptr %5, align 8
  %23 = getelementptr inbounds nuw %struct.StringInfoData, ptr %22, i32 0, i32 0
  %24 = load ptr, ptr %23, align 8
  %25 = load ptr, ptr %5, align 8
  %26 = getelementptr inbounds nuw %struct.StringInfoData, ptr %25, i32 0, i32 1
  %27 = load i32, ptr %26, align 8
  %28 = sext i32 %27 to i64
  %29 = getelementptr inbounds i8, ptr %24, i64 %28
  %30 = load i32, ptr %8, align 4
  %31 = sext i32 %30 to i64
  %32 = load ptr, ptr %6, align 8
  %33 = load ptr, ptr %7, align 8
  %34 = call i64 @pvsnprintf(ptr noundef %29, i64 noundef %31, ptr noundef %32, ptr noundef %33)
  store i64 %34, ptr %9, align 8
  %35 = load i64, ptr %9, align 8
  %36 = load i32, ptr %8, align 4
  %37 = sext i32 %36 to i64
  %38 = icmp ult i64 %35, %37
  br i1 %38, label %39, label %46

39:                                               ; preds = %21
  %40 = load i64, ptr %9, align 8
  %41 = trunc i64 %40 to i32
  %42 = load ptr, ptr %5, align 8
  %43 = getelementptr inbounds nuw %struct.StringInfoData, ptr %42, i32 0, i32 1
  %44 = load i32, ptr %43, align 8
  %45 = add i32 %44, %41
  store i32 %45, ptr %43, align 8
  store i32 0, ptr %4, align 4
  store i32 1, ptr %10, align 4
  br label %57

46:                                               ; preds = %21
  %47 = load ptr, ptr %5, align 8
  %48 = getelementptr inbounds nuw %struct.StringInfoData, ptr %47, i32 0, i32 0
  %49 = load ptr, ptr %48, align 8
  %50 = load ptr, ptr %5, align 8
  %51 = getelementptr inbounds nuw %struct.StringInfoData, ptr %50, i32 0, i32 1
  %52 = load i32, ptr %51, align 8
  %53 = sext i32 %52 to i64
  %54 = getelementptr inbounds i8, ptr %49, i64 %53
  store i8 0, ptr %54, align 1
  %55 = load i64, ptr %9, align 8
  %56 = trunc i64 %55 to i32
  store i32 %56, ptr %4, align 4
  store i32 1, ptr %10, align 4
  br label %57

57:                                               ; preds = %46, %39, %20
  call void @llvm.lifetime.end.p0(i64 8, ptr %9) #10
  call void @llvm.lifetime.end.p0(i64 4, ptr %8) #10
  %58 = load i32, ptr %4, align 4
  ret i32 %58
}