; Function Attrs: nounwind uwtable
define dso_local i32 @appendStringInfoVA(ptr noundef captures(none) %0, ptr noundef %1, ptr noundef %2) local_unnamed_addr #0 {
  %4 = getelementptr inbounds nuw i8, ptr %0, i64 12
  %5 = load i32, ptr %4, align 4
  %6 = getelementptr inbounds nuw i8, ptr %0, i64 8
  %7 = load i32, ptr %6, align 8
  %8 = sub i32 %5, %7
  %9 = icmp slt i32 %8, 16
  br i1 %9, label %26, label %10

10:                                               ; preds = %3
  %11 = load ptr, ptr %0, align 8
  %12 = sext i32 %7 to i64
  %13 = getelementptr inbounds i8, ptr %11, i64 %12
  %14 = zext nneg i32 %8 to i64
  %15 = tail call i64 @pvsnprintf(ptr noundef %13, i64 noundef %14, ptr noundef %1, ptr noundef %2) #12
  %16 = icmp ult i64 %15, %14
  %17 = load i32, ptr %6, align 8
  br i1 %16, label %18, label %21

18:                                               ; preds = %10
  %19 = trunc nuw nsw i64 %15 to i32
  %20 = add i32 %17, %19
  store i32 %20, ptr %6, align 8
  br label %26

21:                                               ; preds = %10
  %22 = load ptr, ptr %0, align 8
  %23 = sext i32 %17 to i64
  %24 = getelementptr inbounds i8, ptr %22, i64 %23
  store i8 0, ptr %24, align 1
  %25 = trunc i64 %15 to i32
  br label %26

26:                                               ; preds = %3, %21, %18
  %.0 = phi i32 [ 0, %18 ], [ %25, %21 ], [ 32, %3 ]
  ret i32 %.0
}